; Function Attrs: mustprogress uwtable
define hidden noundef i64 @_ZNK6google8protobuf28GeneratedCodeInfo_Annotation12ByteSizeLongEv(ptr noundef nonnull align 8 dereferenceable(64) %0) unnamed_addr #3 align 2 {
  %2 = getelementptr inbounds nuw i8, ptr %0, i64 24
  %3 = tail call noundef i64 @_ZN6google8protobuf8internal14WireFormatLite9Int32SizeERKNS0_13RepeatedFieldIiEE(ptr noundef nonnull align 8 dereferenceable(16) %2)
  %.not = icmp eq i64 %3, 0
  br i1 %.not, label %13, label %4

4:                                                ; preds = %1
  %5 = shl i64 %3, 32
  %sext = ashr exact i64 %5, 32
  %6 = or i64 %sext, 1
  %7 = tail call range(i64 0, 65) i64 @llvm.ctlz.i64(i64 %6, i1 true)
  %8 = xor i64 %7, 63
  %9 = mul nuw nsw i64 %8, 9
  %10 = add nuw nsw i64 %9, 73
  %11 = lshr i64 %10, 6
  %12 = add nuw nsw i64 %11, 1
  br label %13

13:                                               ; preds = %4, %1
  %.0 = phi i64 [ %12, %4 ], [ 0, %1 ]
  %14 = trunc i64 %3 to i32
  %15 = getelementptr inbounds nuw i8, ptr %0, i64 40
  store atomic i32 %14, ptr %15 monotonic, align 8
  %16 = add i64 %.0, %3
  %17 = getelementptr inbounds nuw i8, ptr %0, i64 16
  %18 = load i32, ptr %17, align 8, !tbaa !58
  %19 = and i32 %18, 7
  %.not16 = icmp eq i32 %19, 0
  br i1 %.not16, label %67, label %20

20:                                               ; preds = %13
  %21 = and i32 %18, 1
  %.not17 = icmp eq i32 %21, 0
  br i1 %.not17, label %41, label %22

22:                                               ; preds = %20
  %23 = getelementptr inbounds nuw i8, ptr %0, i64 48
  %24 = load ptr, ptr %23, align 8, !tbaa !84
  %25 = ptrtoint ptr %24 to i64
  %26 = and i64 %25, -2
  %27 = inttoptr i64 %26 to ptr
  %28 = getelementptr inbounds nuw i8, ptr %27, i64 8
  %29 = load i64, ptr %28, align 8, !tbaa !85
  %30 = trunc i64 %29 to i32
  %31 = or i32 %30, 1
  %32 = tail call range(i32 0, 33) i32 @llvm.ctlz.i32(i32 %31, i1 true)
  %33 = xor i32 %32, 31
  %34 = mul nuw nsw i32 %33, 9
  %35 = add nuw nsw i32 %34, 73
  %36 = lshr i32 %35, 6
  %37 = zext nneg i32 %36 to i64
  %38 = add i64 %16, 1
  %39 = add i64 %38, %29
  %40 = add i64 %39, %37
  br label %41

41:                                               ; preds = %22, %20
  %.2 = phi i64 [ %40, %22 ], [ %16, %20 ]
  %42 = and i32 %18, 2
  %.not18 = icmp eq i32 %42, 0
  br i1 %.not18, label %54, label %43

43:                                               ; preds = %41
  %44 = getelementptr inbounds nuw i8, ptr %0, i64 56
  %45 = load i32, ptr %44, align 8, !tbaa !482
  %46 = or i32 %45, 1
  %47 = sext i32 %46 to i64
  %48 = tail call range(i64 0, 65) i64 @llvm.ctlz.i64(i64 %47, i1 true)
  %49 = xor i64 %48, 63
  %50 = mul nuw nsw i64 %49, 9
  %51 = add nuw nsw i64 %50, 137
  %52 = lshr i64 %51, 6
  %53 = add i64 %52, %.2
  br label %54

54:                                               ; preds = %43, %41
  %.3 = phi i64 [ %53, %43 ], [ %.2, %41 ]
  %55 = and i32 %18, 4
  %.not19 = icmp eq i32 %55, 0
  br i1 %.not19, label %67, label %56

56:                                               ; preds = %54
  %57 = getelementptr inbounds nuw i8, ptr %0, i64 60
  %58 = load i32, ptr %57, align 4, !tbaa !484
  %59 = or i32 %58, 1
  %60 = sext i32 %59 to i64
  %61 = tail call range(i64 0, 65) i64 @llvm.ctlz.i64(i64 %60, i1 true)
  %62 = xor i64 %61, 63
  %63 = mul nuw nsw i64 %62, 9
  %64 = add nuw nsw i64 %63, 137
  %65 = lshr i64 %64, 6
  %66 = add i64 %65, %.3
  br label %67

67:                                               ; preds = %54, %56, %13
  %.1 = phi i64 [ %66, %56 ], [ %.3, %54 ], [ %16, %13 ]
  %68 = getelementptr inbounds nuw i8, ptr %0, i64 20
  %69 = tail call noundef i64 @_ZNK6google8protobuf7Message29MaybeComputeUnknownFieldsSizeEmPNS0_8internal10CachedSizeE(ptr noundef nonnull align 8 dereferenceable(16) %0, i64 noundef %.1, ptr noundef nonnull %68)
  ret i64 %69
}